; Function Attrs: mustprogress nounwind sspstrong uwtable
define noundef zeroext i16 @_ZN3tbb6detail2r114execution_slotEPKNS0_2d114execution_dataE(ptr noundef readonly %0) local_unnamed_addr #4 {
  %.not = icmp eq ptr %0, null
  br i1 %.not, label %6, label %2

2:                                                ; preds = %1
  %3 = getelementptr inbounds nuw i8, ptr %0, i64 16
  %4 = load ptr, ptr %3, align 8, !tbaa !25
  %5 = load ptr, ptr %4, align 128, !tbaa !41
  br label %.sink.split

6:                                                ; preds = %1
  %7 = load i32, ptr @_ZN3tbb6detail2r18governor6theTLSE, align 4, !tbaa !139
  %8 = tail call noundef ptr @pthread_getspecific(i32 noundef %7) #11
  %.not9 = icmp eq ptr %8, null
  br i1 %.not9, label %11, label %.sink.split

.sink.split:                                      ; preds = %6, %2
  %.sink10 = phi ptr [ %5, %2 ], [ %8, %6 ]
  %9 = getelementptr inbounds nuw i8, ptr %.sink10, i64 16
  %10 = load i16, ptr %9, align 8, !tbaa !151
  br label %11

11:                                               ; preds = %.sink.split, %6
  %.0 = phi i16 [ -1, %6 ], [ %10, %.sink.split ]
  ret i16 %.0
}